target datalayout = "e-m:e-p270:32:32-p271:32:32-p272:64:64-i64:64-i128:128-f80:128-n8:16:32:64-S128"
target triple = "x86_64-pc-linux-gnu"

%struct.AV1PixelRect = type { i32, i32, i32, i32 }
%struct.AV1Common = type { %struct.CurrentFrame, %struct.aom_internal_error_info, i32, i32, i32, i32, i32, i32, i8, i8, [33 x i32], i32, ptr, ptr, [8 x i32], %struct.scale_factors, [8 x %struct.scale_factors], [8 x ptr], i32, i32, i32, %struct.FeatureFlags, %struct.CommonModeInfoParams, %struct.CommonQuantParams, %struct.segmentation, ptr, [8 x i8], %struct.loop_filter_info_n, %struct.loopfilter, [3 x %struct.RestorationInfo], ptr, ptr, %struct.yv12_buffer_config, %struct.CdefInfo, %struct.aom_film_grain_t, %struct.DeltaQInfo, [8 x %struct.WarpedMotionParams], %struct.SequenceHeader, ptr, ptr, %struct.CommonTileParams, ptr, %struct.CommonContexts, i32, [8 x i32], ptr, i32, [8 x i32], [8 x i8], i32, i32, i32, i32 }
%struct.CurrentFrame = type { i8, i8, i32, i32, i32, %struct.SkipModeInfo, i32, i32 }
%struct.SkipModeInfo = type { i32, i32, i32, i32 }
%struct.aom_internal_error_info = type { i32, i32, [200 x i8], i32, [1 x %struct.__jmp_buf_tag] }
%struct.__jmp_buf_tag = type { [8 x i64], i32, %struct.__sigset_t }
%struct.__sigset_t = type { [16 x i64] }
%struct.scale_factors = type { i32, i32, i32, i32, ptr, ptr }
%struct.FeatureFlags = type { i8, i8, i8, i8, i8, i8, i8, i8, i8, i8, i8, i8, i8, i8, i32, i32, i8 }
%struct.CommonModeInfoParams = type { i32, i32, i32, i32, i32, ptr, i32, i32, i8, ptr, i32, i32, ptr, ptr, ptr, ptr }
%struct.CommonQuantParams = type { i32, i32, i32, i32, i32, i32, [8 x [2 x i16]], [8 x [2 x i16]], [8 x [2 x i16]], [16 x [3 x [19 x ptr]]], [16 x [3 x [19 x ptr]]], [8 x [19 x ptr]], [8 x [19 x ptr]], [8 x [19 x ptr]], i8, i32, i32, i32 }
%struct.segmentation = type { i8, i8, i8, i8, [8 x [8 x i16]], [8 x i32], i32, i8 }
%struct.loop_filter_info_n = type { [64 x %struct.loop_filter_thresh], [3 x [8 x [2 x [8 x [2 x i8]]]]] }
%struct.loop_filter_thresh = type { [16 x i8], [16 x i8], [16 x i8] }
%struct.loopfilter = type { [2 x i32], i32, i32, i32, i8, i8, [8 x i8], [2 x i8], i32 }
%struct.RestorationInfo = type { i32, i32, i32, i32, i32, ptr, %struct.RestorationStripeBoundaries, i32 }
%struct.RestorationStripeBoundaries = type { ptr, ptr, i32, i32 }
%struct.yv12_buffer_config = type { %union.anon, %union.anon.0, %union.anon.2, %union.anon.4, %union.anon.6, %union.anon.8, i32, [3 x ptr], ptr, i32, ptr, i64, i32, i64, i32, i32, i32, i32, i32, i32, i8, i32, i32, i32, i32, i32, i32, ptr }
%union.anon = type { %struct.anon }
%struct.anon = type { i32, i32 }
%union.anon.0 = type { %struct.anon.1 }
%struct.anon.1 = type { i32, i32 }
%union.anon.2 = type { %struct.anon.3 }
%struct.anon.3 = type { i32, i32 }
%union.anon.4 = type { %struct.anon.5 }
%struct.anon.5 = type { i32, i32 }
%union.anon.6 = type { %struct.anon.7 }
%struct.anon.7 = type { i32, i32 }
%union.anon.8 = type { %struct.anon.9 }
%struct.anon.9 = type { ptr, ptr, ptr }
%struct.CdefInfo = type { i32, i32, [16 x i32], [16 x i32], i32 }
%struct.aom_film_grain_t = type { i32, i32, [14 x [2 x i32]], i32, [10 x [2 x i32]], i32, [10 x [2 x i32]], i32, i32, i32, [24 x i32], [25 x i32], [25 x i32], i32, i32, i32, i32, i32, i32, i32, i32, i32, i32, i32, i32, i16 }
%struct.DeltaQInfo = type { i32, i32, i32, i32, i32 }
%struct.WarpedMotionParams = type { [8 x i32], i16, i16, i16, i16, i8, i8 }
%struct.SequenceHeader = type { i32, i32, i32, i32, i8, i32, i32, i8, i32, i32, %struct.OrderHintInfo, i8, i8, i8, i8, i8, i8, i8, i8, i8, i8, i8, i8, i8, i8, i32, i8, i8, i32, i32, i32, i32, i32, i32, i32, i8, i8, i32, [32 x i32], i32, %struct.aom_timing, i8, %struct.aom_dec_model_info, i8, [32 x i8], [32 x i8], [33 x %struct.aom_dec_model_op_parameters] }
%struct.OrderHintInfo = type { i32, i32, i32, i32 }
%struct.aom_timing = type { i32, i32, i32, i32 }
%struct.aom_dec_model_info = type { i32, i32, i32, i32 }
%struct.aom_dec_model_op_parameters = type { i32, i64, i64, i32, i32, i32, i32, i32 }
%struct.CommonTileParams = type { i32, i32, i32, i32, i32, i32, i32, i32, i32, i32, i32, i32, i32, i32, i32, [65 x i32], [65 x i32], i32, i32 }
%struct.CommonContexts = type { ptr, [3 x ptr], ptr, i32, i32, i32 }
%struct.AV1LrStruct = type { ptr, [3 x %struct.FilterFrameCtxt], ptr, ptr }
%struct.FilterFrameCtxt = type { ptr, i32, i32, i32, i32, i32, ptr, ptr, i32, i32, %struct.AV1PixelRect }

@.str.1 = private unnamed_addr constant [42 x i8] c"Failed to allocate restoration dst buffer\00", align 1

; Function Attrs: nounwind uwtable
define hidden { i64, i64 } @av1_whole_frame_rect(ptr noundef %0, i32 noundef %1) #0 {
  %3 = alloca %struct.AV1PixelRect, align 4
  %4 = alloca ptr, align 8
  %5 = alloca i32, align 4
  %6 = alloca i32, align 4
  %7 = alloca i32, align 4
  store ptr %0, ptr %4, align 8
  store i32 %1, ptr %5, align 4
  %8 = load i32, ptr %5, align 4
  %9 = icmp ne i32 %8, 0
  br i1 %9, label %10, label %16

10:                                               ; preds = %2
  %11 = load ptr, ptr %4, align 8
  %12 = getelementptr inbounds nuw %struct.AV1Common, ptr %11, i32 0, i32 37
  %13 = getelementptr inbounds nuw %struct.SequenceHeader, ptr %12, i32 0, i32 32
  %14 = load i32, ptr %13, align 16
  %15 = icmp ne i32 %14, 0
  br label %16

16:                                               ; preds = %10, %2
  %17 = phi i1 [ false, %2 ], [ %15, %10 ]
  %18 = zext i1 %17 to i32
  store i32 %18, ptr %6, align 4
  %19 = load i32, ptr %5, align 4
  %20 = icmp ne i32 %19, 0
  br i1 %20, label %21, label %27

21:                                               ; preds = %16
  %22 = load ptr, ptr %4, align 8
  %23 = getelementptr inbounds nuw %struct.AV1Common, ptr %22, i32 0, i32 37
  %24 = getelementptr inbounds nuw %struct.SequenceHeader, ptr %23, i32 0, i32 33
  %25 = load i32, ptr %24, align 4
  %26 = icmp ne i32 %25, 0
  br label %27

27:                                               ; preds = %21, %16
  %28 = phi i1 [ false, %16 ], [ %26, %21 ]
  %29 = zext i1 %28 to i32
  store i32 %29, ptr %7, align 4
  %30 = getelementptr inbounds nuw %struct.AV1PixelRect, ptr %3, i32 0, i32 1
  store i32 0, ptr %30, align 4
  %31 = load ptr, ptr %4, align 8
  %32 = getelementptr inbounds nuw %struct.AV1Common, ptr %31, i32 0, i32 3
  %33 = load i32, ptr %32, align 4
  %34 = load i32, ptr %7, align 4
  %35 = shl i32 1, %34
  %36 = ashr i32 %35, 1
  %37 = add nsw i32 %33, %36
  %38 = load i32, ptr %7, align 4
  %39 = ashr i32 %37, %38
  %40 = getelementptr inbounds nuw %struct.AV1PixelRect, ptr %3, i32 0, i32 3
  store i32 %39, ptr %40, align 4
  %41 = getelementptr inbounds nuw %struct.AV1PixelRect, ptr %3, i32 0, i32 0
  store i32 0, ptr %41, align 4
  %42 = load ptr, ptr %4, align 8
  %43 = getelementptr inbounds nuw %struct.AV1Common, ptr %42, i32 0, i32 6
  %44 = load i32, ptr %43, align 8
  %45 = load i32, ptr %6, align 4
  %46 = shl i32 1, %45
  %47 = ashr i32 %46, 1
  %48 = add nsw i32 %44, %47
  %49 = load i32, ptr %6, align 4
  %50 = ashr i32 %48, %49
  %51 = getelementptr inbounds nuw %struct.AV1PixelRect, ptr %3, i32 0, i32 2
  store i32 %50, ptr %51, align 4
  %52 = load { i64, i64 }, ptr %3, align 4
  ret { i64, i64 } %52
}

; Function Attrs: nounwind uwtable
define hidden void @av1_loop_restoration_filter_frame_init(ptr noundef %0, ptr noundef %1, ptr noundef %2, i32 noundef %3, i32 noundef %4) #0 {
  %6 = alloca ptr, align 8
  %7 = alloca ptr, align 8
  %8 = alloca ptr, align 8
  %9 = alloca i32, align 4
  %10 = alloca i32, align 4
  %11 = alloca ptr, align 8
  %12 = alloca i32, align 4
  %13 = alloca i32, align 4
  %14 = alloca i32, align 4
  %15 = alloca i32, align 4
  %16 = alloca i32, align 4
  %17 = alloca ptr, align 8
  %18 = alloca i32, align 4
  %19 = alloca i32, align 4
  %20 = alloca i32, align 4
  %21 = alloca i32, align 4
  %22 = alloca ptr, align 8
  %23 = alloca %struct.AV1PixelRect, align 4
  store ptr %0, ptr %6, align 8
  store ptr %1, ptr %7, align 8
  store ptr %2, ptr %8, align 8
  store i32 %3, ptr %9, align 4
  store i32 %4, ptr %10, align 4
  %24 = load ptr, ptr %8, align 8
  %25 = getelementptr inbounds nuw %struct.AV1Common, ptr %24, i32 0, i32 37
  store ptr %25, ptr %11, align 8
  %26 = load ptr, ptr %11, align 8
  %27 = getelementptr inbounds nuw %struct.SequenceHeader, ptr %26, i32 0, i32 25
  %28 = load i32, ptr %27, align 8
  store i32 %28, ptr %12, align 4
  %29 = load ptr, ptr %11, align 8
  %30 = getelementptr inbounds nuw %struct.SequenceHeader, ptr %29, i32 0, i32 26
  %31 = load i8, ptr %30, align 4
  %32 = zext i8 %31 to i32
  store i32 %32, ptr %13, align 4
  %33 = load ptr, ptr %8, align 8
  %34 = getelementptr inbounds nuw %struct.AV1Common, ptr %33, i32 0, i32 32
  %35 = load ptr, ptr %6, align 8
  %36 = getelementptr inbounds nuw %struct.AV1LrStruct, ptr %35, i32 0, i32 3
  store ptr %34, ptr %36, align 8
  %37 = load ptr, ptr %7, align 8
  %38 = getelementptr inbounds nuw %struct.yv12_buffer_config, ptr %37, i32 0, i32 2
  %39 = getelementptr inbounds [2 x i32], ptr %38, i64 0, i64 0
  %40 = load i32, ptr %39, align 8
  store i32 %40, ptr %14, align 4
  %41 = load ptr, ptr %7, align 8
  %42 = getelementptr inbounds nuw %struct.yv12_buffer_config, ptr %41, i32 0, i32 3
  %43 = getelementptr inbounds [2 x i32], ptr %42, i64 0, i64 0
  %44 = load i32, ptr %43, align 8
  store i32 %44, ptr %15, align 4
  %45 = load ptr, ptr %6, align 8
  %46 = getelementptr inbounds nuw %struct.AV1LrStruct, ptr %45, i32 0, i32 3
  %47 = load ptr, ptr %46, align 8
  %48 = load i32, ptr %14, align 4
  %49 = load i32, ptr %15, align 4
  %50 = load ptr, ptr %11, align 8
  %51 = getelementptr inbounds nuw %struct.SequenceHeader, ptr %50, i32 0, i32 32
  %52 = load i32, ptr %51, align 8
  %53 = load ptr, ptr %11, align 8
  %54 = getelementptr inbounds nuw %struct.SequenceHeader, ptr %53, i32 0, i32 33
  %55 = load i32, ptr %54, align 4
  %56 = load i32, ptr %13, align 4
  %57 = load ptr, ptr %8, align 8
  %58 = getelementptr inbounds nuw %struct.AV1Common, ptr %57, i32 0, i32 21
  %59 = getelementptr inbounds nuw %struct.FeatureFlags, ptr %58, i32 0, i32 15
  %60 = load i32, ptr %59, align 4
  %61 = call i32 @aom_realloc_frame_buffer(ptr noundef %47, i32 noundef %48, i32 noundef %49, i32 noundef %52, i32 noundef %55, i32 noundef %56, i32 noundef 32, i32 noundef %60, ptr noundef null, ptr noundef null, ptr noundef null)
  %62 = icmp slt i32 %61, 0
  br i1 %62, label %63, label %66

63:                                               ; preds = %5
  %64 = load ptr, ptr %8, align 8
  %65 = getelementptr inbounds nuw %struct.AV1Common, ptr %64, i32 0, i32 1
  call void (ptr, i32, ptr, ...) @aom_internal_error(ptr noundef %65, i32 noundef 2, ptr noundef @.str.1)
  br label %66

66:                                               ; preds = %63, %5
  %67 = load ptr, ptr %6, align 8
  %68 = getelementptr inbounds nuw %struct.AV1LrStruct, ptr %67, i32 0, i32 0
  store ptr @filter_frame_on_unit, ptr %68, align 8
  %69 = load ptr, ptr %7, align 8
  %70 = load ptr, ptr %6, align 8
  %71 = getelementptr inbounds nuw %struct.AV1LrStruct, ptr %70, i32 0, i32 2
  store ptr %69, ptr %71, align 8
  store i32 0, ptr %16, align 4
  br label %72

72:                                               ; preds = %207, %66
  %73 = load i32, ptr %16, align 4
  %74 = load i32, ptr %10, align 4
  %75 = icmp slt i32 %73, %74
  br i1 %75, label %76, label %210

76:                                               ; preds = %72
  %77 = load ptr, ptr %8, align 8
  %78 = getelementptr inbounds nuw %struct.AV1Common, ptr %77, i32 0, i32 29
  %79 = load i32, ptr %16, align 4
  %80 = sext i32 %79 to i64
  %81 = getelementptr inbounds [3 x %struct.RestorationInfo], ptr %78, i64 0, i64 %80
  store ptr %81, ptr %17, align 8
  %82 = load ptr, ptr %17, align 8
  %83 = getelementptr inbounds nuw %struct.RestorationInfo, ptr %82, i32 0, i32 0
  %84 = load i32, ptr %83, align 8
  store i32 %84, ptr %18, align 4
  %85 = load i32, ptr %9, align 4
  %86 = load ptr, ptr %17, align 8
  %87 = getelementptr inbounds nuw %struct.RestorationInfo, ptr %86, i32 0, i32 7
  store i32 %85, ptr %87, align 8
  %88 = load i32, ptr %18, align 4
  %89 = icmp eq i32 %88, 0
  br i1 %89, label %90, label %91

90:                                               ; preds = %76
  br label %207

91:                                               ; preds = %76
  %92 = load i32, ptr %16, align 4
  %93 = icmp sgt i32 %92, 0
  %94 = zext i1 %93 to i32
  store i32 %94, ptr %19, align 4
  %95 = load ptr, ptr %7, align 8
  %96 = getelementptr inbounds nuw %struct.yv12_buffer_config, ptr %95, i32 0, i32 2
  %97 = load i32, ptr %19, align 4
  %98 = sext i32 %97 to i64
  %99 = getelementptr inbounds [2 x i32], ptr %96, i64 0, i64 %98
  %100 = load i32, ptr %99, align 4
  store i32 %100, ptr %20, align 4
  %101 = load ptr, ptr %7, align 8
  %102 = getelementptr inbounds nuw %struct.yv12_buffer_config, ptr %101, i32 0, i32 3
  %103 = load i32, ptr %19, align 4
  %104 = sext i32 %103 to i64
  %105 = getelementptr inbounds [2 x i32], ptr %102, i64 0, i64 %104
  %106 = load i32, ptr %105, align 4
  store i32 %106, ptr %21, align 4
  %107 = load ptr, ptr %6, align 8
  %108 = getelementptr inbounds nuw %struct.AV1LrStruct, ptr %107, i32 0, i32 1
  %109 = load i32, ptr %16, align 4
  %110 = sext i32 %109 to i64
  %111 = getelementptr inbounds [3 x %struct.FilterFrameCtxt], ptr %108, i64 0, i64 %110
  store ptr %111, ptr %22, align 8
  %112 = load ptr, ptr %7, align 8
  %113 = getelementptr inbounds nuw %struct.yv12_buffer_config, ptr %112, i32 0, i32 5
  %114 = load i32, ptr %16, align 4
  %115 = sext i32 %114 to i64
  %116 = getelementptr inbounds [3 x ptr], ptr %113, i64 0, i64 %115
  %117 = load ptr, ptr %116, align 8
  %118 = load i32, ptr %20, align 4
  %119 = load i32, ptr %21, align 4
  %120 = load ptr, ptr %7, align 8
  %121 = getelementptr inbounds nuw %struct.yv12_buffer_config, ptr %120, i32 0, i32 4
  %122 = load i32, ptr %19, align 4
  %123 = sext i32 %122 to i64
  %124 = getelementptr inbounds [2 x i32], ptr %121, i64 0, i64 %123
  %125 = load i32, ptr %124, align 4
  %126 = load i32, ptr %13, align 4
  call void @av1_extend_frame(ptr noundef %117, i32 noundef %118, i32 noundef %119, i32 noundef %125, i32 noundef 3, i32 noundef 3, i32 noundef %126)
  %127 = load ptr, ptr %17, align 8
  %128 = load ptr, ptr %22, align 8
  %129 = getelementptr inbounds nuw %struct.FilterFrameCtxt, ptr %128, i32 0, i32 0
  store ptr %127, ptr %129, align 8
  %130 = load i32, ptr %19, align 4
  %131 = icmp ne i32 %130, 0
  br i1 %131, label %132, label %137

132:                                              ; preds = %91
  %133 = load ptr, ptr %11, align 8
  %134 = getelementptr inbounds nuw %struct.SequenceHeader, ptr %133, i32 0, i32 32
  %135 = load i32, ptr %134, align 8
  %136 = icmp ne i32 %135, 0
  br label %137

137:                                              ; preds = %132, %91
  %138 = phi i1 [ false, %91 ], [ %136, %132 ]
  %139 = zext i1 %138 to i32
  %140 = load ptr, ptr %22, align 8
  %141 = getelementptr inbounds nuw %struct.FilterFrameCtxt, ptr %140, i32 0, i32 2
  store i32 %139, ptr %141, align 4
  %142 = load i32, ptr %19, align 4
  %143 = icmp ne i32 %142, 0
  br i1 %143, label %144, label %149

144:                                              ; preds = %137
  %145 = load ptr, ptr %11, align 8
  %146 = getelementptr inbounds nuw %struct.SequenceHeader, ptr %145, i32 0, i32 33
  %147 = load i32, ptr %146, align 4
  %148 = icmp ne i32 %147, 0
  br label %149

149:                                              ; preds = %144, %137
  %150 = phi i1 [ false, %137 ], [ %148, %144 ]
  %151 = zext i1 %150 to i32
  %152 = load ptr, ptr %22, align 8
  %153 = getelementptr inbounds nuw %struct.FilterFrameCtxt, ptr %152, i32 0, i32 3
  store i32 %151, ptr %153, align 8
  %154 = load i32, ptr %13, align 4
  %155 = load ptr, ptr %22, align 8
  %156 = getelementptr inbounds nuw %struct.FilterFrameCtxt, ptr %155, i32 0, i32 4
  store i32 %154, ptr %156, align 4
  %157 = load i32, ptr %12, align 4
  %158 = load ptr, ptr %22, align 8
  %159 = getelementptr inbounds nuw %struct.FilterFrameCtxt, ptr %158, i32 0, i32 5
  store i32 %157, ptr %159, align 8
  %160 = load ptr, ptr %7, align 8
  %161 = getelementptr inbounds nuw %struct.yv12_buffer_config, ptr %160, i32 0, i32 5
  %162 = load i32, ptr %16, align 4
  %163 = sext i32 %162 to i64
  %164 = getelementptr inbounds [3 x ptr], ptr %161, i64 0, i64 %163
  %165 = load ptr, ptr %164, align 8
  %166 = load ptr, ptr %22, align 8
  %167 = getelementptr inbounds nuw %struct.FilterFrameCtxt, ptr %166, i32 0, i32 6
  store ptr %165, ptr %167, align 8
  %168 = load ptr, ptr %6, align 8
  %169 = getelementptr inbounds nuw %struct.AV1LrStruct, ptr %168, i32 0, i32 3
  %170 = load ptr, ptr %169, align 8
  %171 = getelementptr inbounds nuw %struct.yv12_buffer_config, ptr %170, i32 0, i32 5
  %172 = load i32, ptr %16, align 4
  %173 = sext i32 %172 to i64
  %174 = getelementptr inbounds [3 x ptr], ptr %171, i64 0, i64 %173
  %175 = load ptr, ptr %174, align 8
  %176 = load ptr, ptr %22, align 8
  %177 = getelementptr inbounds nuw %struct.FilterFrameCtxt, ptr %176, i32 0, i32 7
  store ptr %175, ptr %177, align 8
  %178 = load ptr, ptr %7, align 8
  %179 = getelementptr inbounds nuw %struct.yv12_buffer_config, ptr %178, i32 0, i32 4
  %180 = load i32, ptr %19, align 4
  %181 = sext i32 %180 to i64
  %182 = getelementptr inbounds [2 x i32], ptr %179, i64 0, i64 %181
  %183 = load i32, ptr %182, align 4
  %184 = load ptr, ptr %22, align 8
  %185 = getelementptr inbounds nuw %struct.FilterFrameCtxt, ptr %184, i32 0, i32 8
  store i32 %183, ptr %185, align 8
  %186 = load ptr, ptr %6, align 8
  %187 = getelementptr inbounds nuw %struct.AV1LrStruct, ptr %186, i32 0, i32 3
  %188 = load ptr, ptr %187, align 8
  %189 = getelementptr inbounds nuw %struct.yv12_buffer_config, ptr %188, i32 0, i32 4
  %190 = load i32, ptr %19, align 4
  %191 = sext i32 %190 to i64
  %192 = getelementptr inbounds [2 x i32], ptr %189, i64 0, i64 %191
  %193 = load i32, ptr %192, align 4
  %194 = load ptr, ptr %22, align 8
  %195 = getelementptr inbounds nuw %struct.FilterFrameCtxt, ptr %194, i32 0, i32 9
  store i32 %193, ptr %195, align 4
  %196 = load ptr, ptr %22, align 8
  %197 = getelementptr inbounds nuw %struct.FilterFrameCtxt, ptr %196, i32 0, i32 10
  %198 = load ptr, ptr %8, align 8
  %199 = load i32, ptr %19, align 4
  %200 = call { i64, i64 } @av1_whole_frame_rect(ptr noundef %198, i32 noundef %199)
  %201 = getelementptr inbounds nuw { i64, i64 }, ptr %23, i32 0, i32 0
  %202 = extractvalue { i64, i64 } %200, 0
  store i64 %202, ptr %201, align 4
  %203 = getelementptr inbounds nuw { i64, i64 }, ptr %23, i32 0, i32 1
  %204 = extractvalue { i64, i64 } %200, 1
  store i64 %204, ptr %203, align 4
  call void @llvm.memcpy.p0.p0.i64(ptr align 8 %197, ptr align 4 %23, i64 16, i1 false)
  %205 = load ptr, ptr %22, align 8
  %206 = getelementptr inbounds nuw %struct.FilterFrameCtxt, ptr %205, i32 0, i32 1
  store i32 0, ptr %206, align 8
  br label %207

207:                                              ; preds = %149, %90
  %208 = load i32, ptr %16, align 4
  %209 = add nsw i32 %208, 1
  store i32 %209, ptr %16, align 4
  br label %72, !llvm.loop !29

210:                                              ; preds = %72
  ret void
}