; Function Attrs: nounwind uwtable
define hidden void @av1_loop_restoration_filter_frame_init(ptr noundef captures(none) initializes((0, 8), (224, 240)) %0, ptr noundef %1, ptr noundef %2, i32 noundef %3, i32 noundef %4) local_unnamed_addr #2 {
  %6 = getelementptr inbounds nuw i8, ptr %2, i64 25256
  %7 = load i32, ptr %6, align 8
  %8 = getelementptr inbounds nuw i8, ptr %2, i64 25260
  %9 = load i8, ptr %8, align 4
  %10 = zext i8 %9 to i32
  %11 = getelementptr inbounds nuw i8, ptr %2, i64 23816
  %12 = getelementptr inbounds nuw i8, ptr %0, i64 232
  store ptr %11, ptr %12, align 8
  %13 = getelementptr inbounds nuw i8, ptr %1, i64 16
  %14 = load i32, ptr %13, align 8
  %15 = getelementptr inbounds nuw i8, ptr %1, i64 24
  %16 = load i32, ptr %15, align 8
  %17 = getelementptr inbounds nuw i8, ptr %2, i64 25280
  %18 = load i32, ptr %17, align 8
  %19 = getelementptr inbounds nuw i8, ptr %2, i64 25284
  %20 = load i32, ptr %19, align 4
  %21 = getelementptr inbounds nuw i8, ptr %2, i64 1056
  %22 = load i32, ptr %21, align 4
  %23 = tail call i32 @aom_realloc_frame_buffer(ptr noundef nonnull %11, i32 noundef %14, i32 noundef %16, i32 noundef %18, i32 noundef %20, i32 noundef %10, i32 noundef 32, i32 noundef %22, ptr noundef null, ptr noundef null, ptr noundef null) #12
  %24 = icmp slt i32 %23, 0
  br i1 %24, label %25, label %27

25:                                               ; preds = %5
  %26 = getelementptr inbounds nuw i8, ptr %2, i64 40
  tail call void (ptr, i32, ptr, ...) @aom_internal_error(ptr noundef nonnull %26, i32 noundef 2, ptr noundef nonnull @.str.1) #12
  br label %27

27:                                               ; preds = %25, %5
  store ptr @filter_frame_on_unit, ptr %0, align 8
  %28 = getelementptr inbounds nuw i8, ptr %0, i64 224
  store ptr %1, ptr %28, align 8
  %29 = icmp sgt i32 %4, 0
  br i1 %29, label %.lr.ph, label %._crit_edge

.lr.ph:                                           ; preds = %27
  %30 = getelementptr inbounds nuw i8, ptr %2, i64 23608
  %31 = getelementptr inbounds nuw i8, ptr %0, i64 8
  %32 = getelementptr inbounds nuw i8, ptr %1, i64 40
  %33 = getelementptr inbounds nuw i8, ptr %1, i64 32
  %34 = getelementptr inbounds nuw i8, ptr %2, i64 460
  %35 = getelementptr inbounds nuw i8, ptr %2, i64 472
  %wide.trip.count = zext nneg i32 %4 to i64
  br label %36

36:                                               ; preds = %.lr.ph, %101
  %indvars.iv = phi i64 [ 0, %.lr.ph ], [ %indvars.iv.next, %101 ]
  %37 = getelementptr inbounds nuw [3 x %struct.RestorationInfo], ptr %30, i64 0, i64 %indvars.iv
  %38 = load i32, ptr %37, align 8
  %39 = getelementptr inbounds nuw i8, ptr %37, i64 56
  store i32 %3, ptr %39, align 8
  %40 = icmp eq i32 %38, 0
  br i1 %40, label %101, label %41

41:                                               ; preds = %36
  %42 = icmp ne i64 %indvars.iv, 0
  %43 = zext i1 %42 to i64
  %44 = getelementptr inbounds nuw [2 x i32], ptr %13, i64 0, i64 %43
  %45 = load i32, ptr %44, align 4
  %46 = getelementptr inbounds nuw [2 x i32], ptr %15, i64 0, i64 %43
  %47 = load i32, ptr %46, align 4
  %48 = getelementptr inbounds nuw [3 x %struct.FilterFrameCtxt], ptr %31, i64 0, i64 %indvars.iv
  %49 = getelementptr inbounds nuw [3 x ptr], ptr %32, i64 0, i64 %indvars.iv
  %50 = load ptr, ptr %49, align 8
  %51 = getelementptr inbounds nuw [2 x i32], ptr %33, i64 0, i64 %43
  %52 = load i32, ptr %51, align 4
  tail call void @av1_extend_frame(ptr noundef %50, i32 noundef %45, i32 noundef %47, i32 noundef %52, i32 noundef 3, i32 noundef 3, i32 noundef %10)
  store ptr %37, ptr %48, align 8
  br i1 %42, label %53, label %.critedge

53:                                               ; preds = %41
  %54 = load i32, ptr %17, align 8
  %55 = icmp ne i32 %54, 0
  %56 = zext i1 %55 to i32
  %57 = getelementptr inbounds nuw i8, ptr %48, i64 12
  store i32 %56, ptr %57, align 4
  %58 = load i32, ptr %19, align 4
  %59 = icmp ne i32 %58, 0
  %60 = zext i1 %59 to i32
  br label %62

.critedge:                                        ; preds = %41
  %61 = getelementptr inbounds nuw i8, ptr %48, i64 12
  store i32 0, ptr %61, align 4
  br label %62

62:                                               ; preds = %.critedge, %53
  %63 = phi i32 [ %60, %53 ], [ 0, %.critedge ]
  %64 = getelementptr inbounds nuw i8, ptr %48, i64 16
  store i32 %63, ptr %64, align 8
  %65 = getelementptr inbounds nuw i8, ptr %48, i64 20
  store i32 %10, ptr %65, align 4
  %66 = getelementptr inbounds nuw i8, ptr %48, i64 24
  store i32 %7, ptr %66, align 8
  %67 = load ptr, ptr %49, align 8
  %68 = getelementptr inbounds nuw i8, ptr %48, i64 32
  store ptr %67, ptr %68, align 8
  %69 = load ptr, ptr %12, align 8
  %70 = getelementptr inbounds nuw i8, ptr %69, i64 40
  %71 = getelementptr inbounds nuw [3 x ptr], ptr %70, i64 0, i64 %indvars.iv
  %72 = load ptr, ptr %71, align 8
  %73 = getelementptr inbounds nuw i8, ptr %48, i64 40
  store ptr %72, ptr %73, align 8
  %74 = load i32, ptr %51, align 4
  %75 = getelementptr inbounds nuw i8, ptr %48, i64 48
  store i32 %74, ptr %75, align 8
  %76 = getelementptr inbounds nuw i8, ptr %69, i64 32
  %77 = getelementptr inbounds nuw [2 x i32], ptr %76, i64 0, i64 %43
  %78 = load i32, ptr %77, align 4
  %79 = getelementptr inbounds nuw i8, ptr %48, i64 52
  store i32 %78, ptr %79, align 4
  %80 = getelementptr inbounds nuw i8, ptr %48, i64 56
  br i1 %42, label %81, label %av1_whole_frame_rect.exit

81:                                               ; preds = %62
  %82 = load i32, ptr %17, align 16
  %83 = icmp ne i32 %82, 0
  %84 = zext i1 %83 to i32
  %85 = load i32, ptr %19, align 4
  %86 = icmp ne i32 %85, 0
  %87 = zext i1 %86 to i32
  br label %av1_whole_frame_rect.exit

av1_whole_frame_rect.exit:                        ; preds = %62, %81
  %88 = phi i32 [ %84, %81 ], [ 0, %62 ]
  %89 = phi i32 [ %87, %81 ], [ 0, %62 ]
  %90 = load i32, ptr %34, align 4
  %91 = shl nuw nsw i32 1, %89
  %92 = lshr i32 %91, 1
  %93 = add nsw i32 %92, %90
  %94 = ashr i32 %93, %89
  %95 = load i32, ptr %35, align 8
  %96 = shl nuw nsw i32 1, %88
  %97 = lshr i32 %96, 1
  %98 = add nsw i32 %95, %97
  %99 = ashr i32 %98, %88
  %.sroa.5.8.insert.ext.i = zext i32 %94 to i64
  %.sroa.5.8.insert.shift.i = shl nuw i64 %.sroa.5.8.insert.ext.i, 32
  %.sroa.3.8.insert.ext.i = zext i32 %99 to i64
  %.sroa.3.8.insert.insert.i = or disjoint i64 %.sroa.5.8.insert.shift.i, %.sroa.3.8.insert.ext.i
  store i64 0, ptr %80, align 8
  %.sroa.2.0..sroa_idx = getelementptr inbounds nuw i8, ptr %48, i64 64
  store i64 %.sroa.3.8.insert.insert.i, ptr %.sroa.2.0..sroa_idx, align 8
  %100 = getelementptr inbounds nuw i8, ptr %48, i64 8
  store i32 0, ptr %100, align 8
  br label %101

101:                                              ; preds = %36, %av1_whole_frame_rect.exit
  %indvars.iv.next = add nuw nsw i64 %indvars.iv, 1
  %exitcond.not = icmp eq i64 %indvars.iv.next, %wide.trip.count
  br i1 %exitcond.not, label %._crit_edge, label %36, !llvm.loop !31

._crit_edge:                                      ; preds = %101, %27
  ret void
}